; Function Attrs: mustprogress nounwind uwtable
define dso_local noundef ptr @_ZNK4llvm27TargetLoweringObjectFileELF23lowerDSOLocalEquivalentEPKNS_18DSOLocalEquivalentERKNS_13TargetMachineE(ptr nocapture noundef nonnull readonly align 8 dereferenceable(1026) %0, ptr nocapture noundef readonly %1, ptr noundef nonnull align 8 dereferenceable(1232) %2) unnamed_addr #0 align 2 {
  %4 = getelementptr inbounds i8, ptr %1, i64 -32
  %5 = load ptr, ptr %4, align 8
  %6 = getelementptr inbounds nuw i8, ptr %5, i64 32
  %7 = load i32, ptr %6, align 8
  %8 = and i32 %7, 16384
  %.not = icmp eq i32 %8, 0
  br i1 %.not, label %9, label %_ZNK4llvm11GlobalValue18isImplicitDSOLocalEv.exit.thread

9:                                                ; preds = %3
  %10 = and i32 %7, 15
  %11 = add nsw i32 %10, -7
  %spec.select.i.i.i = icmp ult i32 %11, 2
  br i1 %spec.select.i.i.i, label %_ZNK4llvm11GlobalValue18isImplicitDSOLocalEv.exit.thread, label %_ZNK4llvm11GlobalValue18isImplicitDSOLocalEv.exit

_ZNK4llvm11GlobalValue18isImplicitDSOLocalEv.exit: ; preds = %9
  %12 = and i32 %7, 48
  %13 = icmp ne i32 %12, 0
  %14 = icmp ne i32 %10, 9
  %spec.select.i = and i1 %13, %14
  br i1 %spec.select.i, label %_ZNK4llvm11GlobalValue18isImplicitDSOLocalEv.exit.thread, label %19

_ZNK4llvm11GlobalValue18isImplicitDSOLocalEv.exit.thread: ; preds = %9, %_ZNK4llvm11GlobalValue18isImplicitDSOLocalEv.exit, %3
  %15 = tail call noundef ptr @_ZNK4llvm13TargetMachine9getSymbolEPKNS_11GlobalValueE(ptr noundef nonnull align 8 dereferenceable(1232) %2, ptr noundef nonnull %5) #24
  %16 = getelementptr inbounds nuw i8, ptr %0, i64 904
  %17 = load ptr, ptr %16, align 8
  %18 = tail call noundef ptr @_ZN4llvm15MCSymbolRefExpr6createEPKNS_8MCSymbolENS0_11VariantKindERNS_9MCContextENS_5SMLocE(ptr noundef %15, i16 noundef zeroext 0, ptr noundef nonnull align 8 dereferenceable(2432) %17, ptr null) #24
  br label %26

19:                                               ; preds = %_ZNK4llvm11GlobalValue18isImplicitDSOLocalEv.exit
  %20 = tail call noundef ptr @_ZNK4llvm13TargetMachine9getSymbolEPKNS_11GlobalValueE(ptr noundef nonnull align 8 dereferenceable(1232) %2, ptr noundef nonnull %5) #24
  %21 = getelementptr inbounds nuw i8, ptr %0, i64 1024
  %22 = load i16, ptr %21, align 8
  %23 = getelementptr inbounds nuw i8, ptr %0, i64 904
  %24 = load ptr, ptr %23, align 8
  %25 = tail call noundef ptr @_ZN4llvm15MCSymbolRefExpr6createEPKNS_8MCSymbolENS0_11VariantKindERNS_9MCContextENS_5SMLocE(ptr noundef %20, i16 noundef zeroext %22, ptr noundef nonnull align 8 dereferenceable(2432) %24, ptr null) #24
  br label %26

26:                                               ; preds = %19, %_ZNK4llvm11GlobalValue18isImplicitDSOLocalEv.exit.thread
  %.0 = phi ptr [ %18, %_ZNK4llvm11GlobalValue18isImplicitDSOLocalEv.exit.thread ], [ %25, %19 ]
  ret ptr %.0
}